target datalayout = "e-m:e-p270:32:32-p271:32:32-p272:64:64-i64:64-i128:128-f80:128-n8:16:32:64-S128"
target triple = "x86_64-pc-linux-gnu"

%"class.g2o::OptimizableGraph::Vertex" = type { %"class.g2o::HyperGraph::Vertex", %"class.g2o::HyperGraph::DataContainer", ptr, ptr, i32, i8, i8, i32, i32, [8 x i8], ptr }
%"class.g2o::HyperGraph::Vertex" = type { %"struct.g2o::HyperGraph::HyperGraphElement", i32, %"class.std::set" }
%"struct.g2o::HyperGraph::HyperGraphElement" = type { ptr }
%"class.std::set" = type { %"class.std::_Rb_tree" }
%"class.std::_Rb_tree" = type { %"struct.std::_Rb_tree<g2o::HyperGraph::Edge *, g2o::HyperGraph::Edge *, std::_Identity<g2o::HyperGraph::Edge *>, std::less<g2o::HyperGraph::Edge *>>::_Rb_tree_impl" }
%"struct.std::_Rb_tree<g2o::HyperGraph::Edge *, g2o::HyperGraph::Edge *, std::_Identity<g2o::HyperGraph::Edge *>, std::less<g2o::HyperGraph::Edge *>>::_Rb_tree_impl" = type { [8 x i8], %"struct.std::_Rb_tree_header" }
%"struct.std::_Rb_tree_header" = type { %"struct.std::_Rb_tree_node_base", i64 }
%"struct.std::_Rb_tree_node_base" = type { i32, ptr, ptr, ptr }
%"class.g2o::HyperGraph::DataContainer" = type { ptr, ptr }

@_ZTVN3g2o10HyperGraph13DataContainerE = linkonce_odr unnamed_addr constant { [4 x ptr] } { [4 x ptr] [ptr null, ptr @_ZTIN3g2o10HyperGraph13DataContainerE, ptr @_ZN3g2o10HyperGraph13DataContainerD2Ev, ptr @_ZN3g2o10HyperGraph13DataContainerD0Ev] }, comdat, align 8

; Function Attrs: mustprogress nounwind uwtable
define linkonce_odr void @_ZN3g2o10HyperGraph13DataContainerD2Ev(ptr noundef nonnull align 8 dereferenceable(16) %0) unnamed_addr #4 comdat align 2 {
  %2 = alloca ptr, align 8
  store ptr %0, ptr %2, align 8, !tbaa !45
  %3 = load ptr, ptr %2, align 8
  store ptr getelementptr inbounds inrange(-16, 16) ({ [4 x ptr] }, ptr @_ZTVN3g2o10HyperGraph13DataContainerE, i32 0, i32 0, i32 2), ptr %3, align 8, !tbaa !16
  %4 = getelementptr inbounds nuw %"class.g2o::HyperGraph::DataContainer", ptr %3, i32 0, i32 1
  %5 = load ptr, ptr %4, align 8, !tbaa !47
  %6 = icmp eq ptr %5, null
  br i1 %6, label %11, label %7

7:                                                ; preds = %1
  %8 = load ptr, ptr %5, align 8, !tbaa !16
  %9 = getelementptr inbounds ptr, ptr %8, i64 1
  %10 = load ptr, ptr %9, align 8
  call void %10(ptr noundef nonnull align 8 dereferenceable(24) %5) #3
  br label %11

11:                                               ; preds = %7, %1
  ret void
}

; Function Attrs: mustprogress nounwind uwtable
define linkonce_odr void @_ZN3g2o11OpenMPMutexC2Ev(ptr noundef nonnull align 1 dereferenceable(1) %0) unnamed_addr #4 comdat align 2 {
  %2 = alloca ptr, align 8
  store ptr %0, ptr %2, align 8, !tbaa !48
  ret void
}

; Function Attrs: mustprogress nounwind uwtable
define linkonce_odr void @_ZN3g2o10HyperGraph13DataContainerC2Ev(ptr noundef nonnull align 8 dereferenceable(16) %0) unnamed_addr #4 comdat align 2 {
  %2 = alloca ptr, align 8
  store ptr %0, ptr %2, align 8, !tbaa !45
  %3 = load ptr, ptr %2, align 8
  store ptr getelementptr inbounds inrange(-16, 16) ({ [4 x ptr] }, ptr @_ZTVN3g2o10HyperGraph13DataContainerE, i32 0, i32 0, i32 2), ptr %3, align 8, !tbaa !16
  %4 = getelementptr inbounds nuw %"class.g2o::HyperGraph::DataContainer", ptr %3, i32 0, i32 1
  store ptr null, ptr %4, align 8, !tbaa !47
  ret void
}

; Function Attrs: mustprogress uwtable
define void @_ZN3g2o16OptimizableGraph6VertexC2Ev(ptr noundef nonnull align 8 dereferenceable(128) %0) unnamed_addr #6 align 2 personality ptr @__gxx_personality_v0 {
  %2 = alloca ptr, align 8
  %3 = alloca ptr, align 8
  %4 = alloca i32, align 4
  store ptr %0, ptr %2, align 8, !tbaa !14
  %5 = load ptr, ptr %2, align 8
  call void @_ZN3g2o10HyperGraph6VertexC2Ei(ptr noundef nonnull align 8 dereferenceable(64) %5, i32 noundef -2)
  %6 = getelementptr inbounds i8, ptr %5, i64 64
  invoke void @_ZN3g2o10HyperGraph13DataContainerC2Ev(ptr noundef nonnull align 8 dereferenceable(16) %6)
          to label %7 unwind label %18

7:                                                ; preds = %1
  store ptr getelementptr inbounds inrange(-16, 256) ({ [34 x ptr], [4 x ptr] }, ptr @_ZTVN3g2o16OptimizableGraph6VertexE, i32 0, i32 0, i32 2), ptr %5, align 8, !tbaa !16
  %8 = getelementptr inbounds i8, ptr %5, i64 64
  store ptr getelementptr inbounds inrange(-16, 16) ({ [34 x ptr], [4 x ptr] }, ptr @_ZTVN3g2o16OptimizableGraph6VertexE, i32 0, i32 1, i32 2), ptr %8, align 8, !tbaa !16
  %9 = getelementptr inbounds nuw %"class.g2o::OptimizableGraph::Vertex", ptr %5, i32 0, i32 2
  store ptr null, ptr %9, align 8, !tbaa !18
  %10 = getelementptr inbounds nuw %"class.g2o::OptimizableGraph::Vertex", ptr %5, i32 0, i32 3
  store ptr null, ptr %10, align 8, !tbaa !39
  %11 = getelementptr inbounds nuw %"class.g2o::OptimizableGraph::Vertex", ptr %5, i32 0, i32 4
  store i32 -1, ptr %11, align 8, !tbaa !40
  %12 = getelementptr inbounds nuw %"class.g2o::OptimizableGraph::Vertex", ptr %5, i32 0, i32 5
  store i8 0, ptr %12, align 4, !tbaa !41
  %13 = getelementptr inbounds nuw %"class.g2o::OptimizableGraph::Vertex", ptr %5, i32 0, i32 6
  store i8 0, ptr %13, align 1, !tbaa !42
  %14 = getelementptr inbounds nuw %"class.g2o::OptimizableGraph::Vertex", ptr %5, i32 0, i32 8
  store i32 -1, ptr %14, align 4, !tbaa !43
  %15 = getelementptr inbounds i8, ptr %5, i64 112
  invoke void @_ZN3g2o11OpenMPMutexC2Ev(ptr noundef nonnull align 1 dereferenceable(1) %15)
          to label %16 unwind label %22

16:                                               ; preds = %7
  %17 = getelementptr inbounds nuw %"class.g2o::OptimizableGraph::Vertex", ptr %5, i32 0, i32 10
  store ptr null, ptr %17, align 8, !tbaa !44
  ret void

18:                                               ; preds = %1
  %19 = landingpad { ptr, i32 }
          cleanup
  %20 = extractvalue { ptr, i32 } %19, 0
  store ptr %20, ptr %3, align 8
  %21 = extractvalue { ptr, i32 } %19, 1
  store i32 %21, ptr %4, align 4
  br label %27

22:                                               ; preds = %7
  %23 = landingpad { ptr, i32 }
          cleanup
  %24 = extractvalue { ptr, i32 } %23, 0
  store ptr %24, ptr %3, align 8
  %25 = extractvalue { ptr, i32 } %23, 1
  store i32 %25, ptr %4, align 4
  %26 = getelementptr inbounds i8, ptr %5, i64 64
  call void @_ZN3g2o10HyperGraph13DataContainerD2Ev(ptr noundef nonnull align 8 dereferenceable(16) %26) #3
  br label %27

27:                                               ; preds = %22, %18
  call void @_ZN3g2o10HyperGraph6VertexD2Ev(ptr noundef nonnull align 8 dereferenceable(64) %5) #3
  br label %28

28:                                               ; preds = %27
  %29 = load ptr, ptr %3, align 8
  %30 = load i32, ptr %4, align 4
  %31 = insertvalue { ptr, i32 } poison, ptr %29, 0
  %32 = insertvalue { ptr, i32 } %31, i32 %30, 1
  resume { ptr, i32 } %32
}