; Function Attrs: mustprogress uwtable
define void @_ZN3g2o16OptimizableGraph6VertexC2Ev(ptr noundef nonnull align 8 dereferenceable(128) %0) unnamed_addr #4 align 2 personality ptr @__gxx_personality_v0 {
  tail call void @_ZN3g2o10HyperGraph6VertexC2Ei(ptr noundef nonnull align 8 dereferenceable(64) %0, i32 noundef -2)
  %2 = getelementptr inbounds nuw i8, ptr %0, i64 64
  %3 = getelementptr inbounds nuw i8, ptr %0, i64 72
  store ptr null, ptr %3, align 8, !tbaa !3
  store ptr getelementptr inbounds nuw inrange(-16, 256) (i8, ptr @_ZTVN3g2o16OptimizableGraph6VertexE, i64 16), ptr %0, align 8, !tbaa !9
  store ptr getelementptr inbounds nuw inrange(-16, 16) (i8, ptr @_ZTVN3g2o16OptimizableGraph6VertexE, i64 288), ptr %2, align 8, !tbaa !9
  %4 = getelementptr inbounds nuw i8, ptr %0, i64 80
  %5 = getelementptr inbounds nuw i8, ptr %0, i64 96
  tail call void @llvm.memset.p0.i64(ptr noundef nonnull align 8 dereferenceable(16) %4, i8 0, i64 16, i1 false)
  store i32 -1, ptr %5, align 8, !tbaa !11
  %6 = getelementptr inbounds nuw i8, ptr %0, i64 100
  store i8 0, ptr %6, align 4, !tbaa !30
  %7 = getelementptr inbounds nuw i8, ptr %0, i64 101
  store i8 0, ptr %7, align 1, !tbaa !31
  %8 = getelementptr inbounds nuw i8, ptr %0, i64 108
  store i32 -1, ptr %8, align 4, !tbaa !32
  %9 = getelementptr inbounds nuw i8, ptr %0, i64 120
  store ptr null, ptr %9, align 8, !tbaa !33
  ret void
}